; ModuleID = '10/1744.c'
source_filename = "10/1744.c"
target datalayout = "e-m:e-p270:32:32-p271:32:32-p272:64:64-i64:64-f80:128-n8:16:32:64-S128"
target triple = "x86_64-pc-linux-gnu"

@.str = private unnamed_addr constant [3 x i8] c"%d\00", align 1
@.str.1 = private unnamed_addr constant [4 x i8] c"%d\0A\00", align 1

; Function Attrs: noinline nounwind uwtable
define dso_local void @main() #0 {
  %1 = alloca [25 x i32], align 16
  %2 = alloca [25 x i32], align 16
  %3 = alloca i32, align 4
  %4 = alloca i32, align 4
  %5 = alloca i32, align 4
  %6 = alloca i32, align 4
  %7 = bitcast [25 x i32]* %2 to i8*
  call void @llvm.memset.p0i8.i64(i8* align 16 %7, i8 0, i64 100, i1 false)
  store i32 0, i32* %3, align 4
  %8 = call i32 (i8*, ...) @__isoc99_scanf(i8* getelementptr inbounds ([3 x i8], [3 x i8]* @.str, i64 0, i64 0), i32* %4)
  store i32 0, i32* %5, align 4
  br label %9

9:                                                ; preds = %19, %0
  %10 = load i32, i32* %5, align 4
  %11 = load i32, i32* %4, align 4
  %12 = sub nsw i32 %11, 1
  %13 = icmp sle i32 %10, %12
  br i1 %13, label %14, label %22

14:                                               ; preds = %9
  %15 = load i32, i32* %5, align 4
  %16 = sext i32 %15 to i64
  %17 = getelementptr inbounds [25 x i32], [25 x i32]* %1, i64 0, i64 %16
  %18 = call i32 (i8*, ...) @__isoc99_scanf(i8* getelementptr inbounds ([3 x i8], [3 x i8]* @.str, i64 0, i64 0), i32* %17)
  br label %19

19:                                               ; preds = %14
  %20 = load i32, i32* %5, align 4
  %21 = add nsw i32 %20, 1
  store i32 %21, i32* %5, align 4
  br label %9

22:                                               ; preds = %9
  store i32 0, i32* %5, align 4
  br label %23

23:                                               ; preds = %32, %22
  %24 = load i32, i32* %5, align 4
  %25 = load i32, i32* %4, align 4
  %26 = sub nsw i32 %25, 1
  %27 = icmp sle i32 %24, %26
  br i1 %27, label %28, label %35

28:                                               ; preds = %23
  %29 = load i32, i32* %5, align 4
  %30 = sext i32 %29 to i64
  %31 = getelementptr inbounds [25 x i32], [25 x i32]* %2, i64 0, i64 %30
  store i32 1, i32* %31, align 4
  br label %32

32:                                               ; preds = %28
  %33 = load i32, i32* %5, align 4
  %34 = add nsw i32 %33, 1
  store i32 %34, i32* %5, align 4
  br label %23

35:                                               ; preds = %23
  store i32 1, i32* %3, align 4
  store i32 1, i32* %5, align 4
  br label %36

36:                                               ; preds = %94, %35
  %37 = load i32, i32* %5, align 4
  %38 = load i32, i32* %4, align 4
  %39 = sub nsw i32 %38, 1
  %40 = icmp sle i32 %37, %39
  br i1 %40, label %41, label %97

41:                                               ; preds = %36
  store i32 0, i32* %6, align 4
  br label %42

42:                                               ; preds = %90, %41
  %43 = load i32, i32* %6, align 4
  %44 = load i32, i32* %5, align 4
  %45 = sub nsw i32 %44, 1
  %46 = icmp sle i32 %43, %45
  br i1 %46, label %47, label %93

47:                                               ; preds = %42
  %48 = load i32, i32* %6, align 4
  %49 = sext i32 %48 to i64
  %50 = getelementptr inbounds [25 x i32], [25 x i32]* %1, i64 0, i64 %49
  %51 = load i32, i32* %50, align 4
  %52 = load i32, i32* %5, align 4
  %53 = sext i32 %52 to i64
  %54 = getelementptr inbounds [25 x i32], [25 x i32]* %1, i64 0, i64 %53
  %55 = load i32, i32* %54, align 4
  %56 = icmp sge i32 %51, %55
  br i1 %56, label %57, label %77

57:                                               ; preds = %47
  %58 = load i32, i32* %6, align 4
  %59 = sext i32 %58 to i64
  %60 = getelementptr inbounds [25 x i32], [25 x i32]* %2, i64 0, i64 %59
  %61 = load i32, i32* %60, align 4
  %62 = add nsw i32 %61, 1
  %63 = load i32, i32* %5, align 4
  %64 = sext i32 %63 to i64
  %65 = getelementptr inbounds [25 x i32], [25 x i32]* %2, i64 0, i64 %64
  %66 = load i32, i32* %65, align 4
  %67 = icmp sgt i32 %62, %66
  br i1 %67, label %68, label %77

68:                                               ; preds = %57
  %69 = load i32, i32* %6, align 4
  %70 = sext i32 %69 to i64
  %71 = getelementptr inbounds [25 x i32], [25 x i32]* %2, i64 0, i64 %70
  %72 = load i32, i32* %71, align 4
  %73 = add nsw i32 %72, 1
  %74 = load i32, i32* %5, align 4
  %75 = sext i32 %74 to i64
  %76 = getelementptr inbounds [25 x i32], [25 x i32]* %2, i64 0, i64 %75
  store i32 %73, i32* %76, align 4
  br label %77

77:                                               ; preds = %68, %57, %47
  %78 = load i32, i32* %5, align 4
  %79 = sext i32 %78 to i64
  %80 = getelementptr inbounds [25 x i32], [25 x i32]* %2, i64 0, i64 %79
  %81 = load i32, i32* %80, align 4
  %82 = load i32, i32* %3, align 4
  %83 = icmp sgt i32 %81, %82
  br i1 %83, label %84, label %89

84:                                               ; preds = %77
  %85 = load i32, i32* %5, align 4
  %86 = sext i32 %85 to i64
  %87 = getelementptr inbounds [25 x i32], [25 x i32]* %2, i64 0, i64 %86
  %88 = load i32, i32* %87, align 4
  store i32 %88, i32* %3, align 4
  br label %89

89:                                               ; preds = %84, %77
  br label %90

90:                                               ; preds = %89
  %91 = load i32, i32* %6, align 4
  %92 = add nsw i32 %91, 1
  store i32 %92, i32* %6, align 4
  br label %42

93:                                               ; preds = %42
  br label %94

94:                                               ; preds = %93
  %95 = load i32, i32* %5, align 4
  %96 = add nsw i32 %95, 1
  store i32 %96, i32* %5, align 4
  br label %36

97:                                               ; preds = %36
  %98 = load i32, i32* %3, align 4
  %99 = call i32 (i8*, ...) @printf(i8* getelementptr inbounds ([4 x i8], [4 x i8]* @.str.1, i64 0, i64 0), i32 %98)
  ret void
}

; Function Attrs: argmemonly nounwind willreturn
declare void @llvm.memset.p0i8.i64(i8* nocapture writeonly, i8, i64, i1 immarg) #1

declare dso_local i32 @__isoc99_scanf(i8*, ...) #2

declare dso_local i32 @printf(i8*, ...) #2


!llvm.module.flags = !{!0}
!llvm.ident = !{!1}

!0 = !{i32 1, !"wchar_size", i32 4}
!1 = !{!"clang version 10.0.0-4ubuntu1 "}
